target datalayout = "e-m:e-p270:32:32-p271:32:32-p272:64:64-i64:64-i128:128-f80:128-n8:16:32:64-S128"
target triple = "x86_64-pc-linux-gnu"

%"class.open_spiel::battleship::CellAndDirection" = type { i32, %"struct.open_spiel::battleship::Cell" }
%"struct.open_spiel::battleship::Cell" = type { i32, i32 }

; Function Attrs: mustprogress nounwind uwtable
define linkonce_odr i64 @_ZNK10open_spiel10battleship16CellAndDirection13TopLeftCornerEv(ptr noundef nonnull align 4 dereferenceable(12) %0) #5 comdat align 2 {
  %2 = alloca %"struct.open_spiel::battleship::Cell", align 4
  %3 = alloca ptr, align 8
  store ptr %0, ptr %3, align 8
  %4 = load ptr, ptr %3, align 8
  %5 = getelementptr inbounds nuw %"class.open_spiel::battleship::CellAndDirection", ptr %4, i32 0, i32 1
  call void @llvm.memcpy.p0.p0.i64(ptr align 4 %2, ptr align 4 %5, i64 8, i1 false)
  %6 = load i64, ptr %2, align 4
  ret i64 %6
}

; Function Attrs: mustprogress uwtable
define noundef zeroext i1 @_ZNK10open_spiel10battleship13ShipPlacement12OverlapsWithERKS1_(ptr noundef nonnull align 8 dereferenceable(32) %0, ptr noundef nonnull align 8 dereferenceable(32) %1) #4 align 2 {
  %3 = alloca i1, align 1
  %4 = alloca ptr, align 8
  %5 = alloca ptr, align 8
  %6 = alloca %"struct.open_spiel::battleship::Cell", align 4
  %7 = alloca %"struct.open_spiel::battleship::Cell", align 4
  %8 = alloca %"struct.open_spiel::battleship::Cell", align 4
  %9 = alloca %"struct.open_spiel::battleship::Cell", align 4
  %10 = alloca %"struct.open_spiel::battleship::Cell", align 4
  %11 = alloca %"struct.open_spiel::battleship::Cell", align 4
  %12 = alloca %"struct.open_spiel::battleship::Cell", align 4
  %13 = alloca %"struct.open_spiel::battleship::Cell", align 4
  store ptr %0, ptr %4, align 8
  store ptr %1, ptr %5, align 8
  %14 = load ptr, ptr %4, align 8
  %15 = load ptr, ptr %5, align 8
  %16 = call i64 @_ZNK10open_spiel10battleship13ShipPlacement17BottomRightCornerEv(ptr noundef nonnull align 8 dereferenceable(32) %15)
  store i64 %16, ptr %6, align 4
  %17 = getelementptr inbounds nuw %"struct.open_spiel::battleship::Cell", ptr %6, i32 0, i32 0
  %18 = load i32, ptr %17, align 4
  %19 = call i64 @_ZNK10open_spiel10battleship16CellAndDirection13TopLeftCornerEv(ptr noundef nonnull align 4 dereferenceable(12) %14)
  store i64 %19, ptr %7, align 4
  %20 = getelementptr inbounds nuw %"struct.open_spiel::battleship::Cell", ptr %7, i32 0, i32 0
  %21 = load i32, ptr %20, align 4
  %22 = icmp slt i32 %18, %21
  br i1 %22, label %23, label %24

23:                                               ; preds = %2
  store i1 false, ptr %3, align 1
  br label %58

24:                                               ; preds = %2
  %25 = load ptr, ptr %5, align 8
  %26 = call i64 @_ZNK10open_spiel10battleship16CellAndDirection13TopLeftCornerEv(ptr noundef nonnull align 4 dereferenceable(12) %25)
  store i64 %26, ptr %8, align 4
  %27 = getelementptr inbounds nuw %"struct.open_spiel::battleship::Cell", ptr %8, i32 0, i32 0
  %28 = load i32, ptr %27, align 4
  %29 = call i64 @_ZNK10open_spiel10battleship13ShipPlacement17BottomRightCornerEv(ptr noundef nonnull align 8 dereferenceable(32) %14)
  store i64 %29, ptr %9, align 4
  %30 = getelementptr inbounds nuw %"struct.open_spiel::battleship::Cell", ptr %9, i32 0, i32 0
  %31 = load i32, ptr %30, align 4
  %32 = icmp sgt i32 %28, %31
  br i1 %32, label %33, label %34

33:                                               ; preds = %24
  store i1 false, ptr %3, align 1
  br label %58

34:                                               ; preds = %24
  %35 = load ptr, ptr %5, align 8
  %36 = call i64 @_ZNK10open_spiel10battleship13ShipPlacement17BottomRightCornerEv(ptr noundef nonnull align 8 dereferenceable(32) %35)
  store i64 %36, ptr %10, align 4
  %37 = getelementptr inbounds nuw %"struct.open_spiel::battleship::Cell", ptr %10, i32 0, i32 1
  %38 = load i32, ptr %37, align 4
  %39 = call i64 @_ZNK10open_spiel10battleship16CellAndDirection13TopLeftCornerEv(ptr noundef nonnull align 4 dereferenceable(12) %14)
  store i64 %39, ptr %11, align 4
  %40 = getelementptr inbounds nuw %"struct.open_spiel::battleship::Cell", ptr %11, i32 0, i32 1
  %41 = load i32, ptr %40, align 4
  %42 = icmp slt i32 %38, %41
  br i1 %42, label %43, label %44

43:                                               ; preds = %34
  store i1 false, ptr %3, align 1
  br label %58

44:                                               ; preds = %34
  %45 = load ptr, ptr %5, align 8
  %46 = call i64 @_ZNK10open_spiel10battleship16CellAndDirection13TopLeftCornerEv(ptr noundef nonnull align 4 dereferenceable(12) %45)
  store i64 %46, ptr %12, align 4
  %47 = getelementptr inbounds nuw %"struct.open_spiel::battleship::Cell", ptr %12, i32 0, i32 1
  %48 = load i32, ptr %47, align 4
  %49 = call i64 @_ZNK10open_spiel10battleship13ShipPlacement17BottomRightCornerEv(ptr noundef nonnull align 8 dereferenceable(32) %14)
  store i64 %49, ptr %13, align 4
  %50 = getelementptr inbounds nuw %"struct.open_spiel::battleship::Cell", ptr %13, i32 0, i32 1
  %51 = load i32, ptr %50, align 4
  %52 = icmp sgt i32 %48, %51
  br i1 %52, label %53, label %54

53:                                               ; preds = %44
  store i1 false, ptr %3, align 1
  br label %58

54:                                               ; preds = %44
  br label %55

55:                                               ; preds = %54
  br label %56

56:                                               ; preds = %55
  br label %57

57:                                               ; preds = %56
  store i1 true, ptr %3, align 1
  br label %58

58:                                               ; preds = %57, %53, %43, %33, %23
  %59 = load i1, ptr %3, align 1
  ret i1 %59
}