; Function Attrs: mustprogress uwtable
define noundef zeroext i1 @_ZNK10open_spiel10battleship13ShipPlacement12OverlapsWithERKS1_(ptr nocapture noundef nonnull readonly align 8 dereferenceable(32) %0, ptr nocapture noundef nonnull readonly align 8 dereferenceable(32) %1) local_unnamed_addr #3 align 2 {
  %3 = tail call i64 @_ZNK10open_spiel10battleship13ShipPlacement17BottomRightCornerEv(ptr noundef nonnull align 8 dereferenceable(32) %1)
  %.sroa.012.0.extract.trunc = trunc i64 %3 to i32
  %4 = getelementptr inbounds nuw i8, ptr %0, i64 4
  %.sroa.0.0.copyload.i = load i64, ptr %4, align 4
  %.sroa.010.0.extract.trunc = trunc i64 %.sroa.0.0.copyload.i to i32
  %5 = icmp slt i32 %.sroa.012.0.extract.trunc, %.sroa.010.0.extract.trunc
  br i1 %5, label %16, label %6

6:                                                ; preds = %2
  %7 = getelementptr inbounds nuw i8, ptr %1, i64 4
  %.sroa.0.0.copyload.i19 = load i64, ptr %7, align 4
  %.sroa.08.0.extract.trunc = trunc i64 %.sroa.0.0.copyload.i19 to i32
  %8 = tail call i64 @_ZNK10open_spiel10battleship13ShipPlacement17BottomRightCornerEv(ptr noundef nonnull align 8 dereferenceable(32) %0)
  %.sroa.07.0.extract.trunc = trunc i64 %8 to i32
  %9 = icmp sgt i32 %.sroa.08.0.extract.trunc, %.sroa.07.0.extract.trunc
  br i1 %9, label %16, label %10

10:                                               ; preds = %6
  %11 = tail call i64 @_ZNK10open_spiel10battleship13ShipPlacement17BottomRightCornerEv(ptr noundef nonnull align 8 dereferenceable(32) %1)
  %.sroa.16.0.extract.shift = lshr i64 %11, 32
  %.sroa.16.0.extract.trunc = trunc nuw i64 %.sroa.16.0.extract.shift to i32
  %.sroa.0.0.copyload.i20 = load i64, ptr %4, align 4
  %.sroa.14.0.extract.shift = lshr i64 %.sroa.0.0.copyload.i20, 32
  %.sroa.14.0.extract.trunc = trunc nuw i64 %.sroa.14.0.extract.shift to i32
  %12 = icmp slt i32 %.sroa.16.0.extract.trunc, %.sroa.14.0.extract.trunc
  br i1 %12, label %16, label %13

13:                                               ; preds = %10
  %.sroa.0.0.copyload.i21 = load i64, ptr %7, align 4
  %.sroa.12.0.extract.shift = lshr i64 %.sroa.0.0.copyload.i21, 32
  %.sroa.12.0.extract.trunc = trunc nuw i64 %.sroa.12.0.extract.shift to i32
  %14 = tail call i64 @_ZNK10open_spiel10battleship13ShipPlacement17BottomRightCornerEv(ptr noundef nonnull align 8 dereferenceable(32) %0)
  %.sroa.1.0.extract.shift = lshr i64 %14, 32
  %.sroa.1.0.extract.trunc = trunc nuw i64 %.sroa.1.0.extract.shift to i32
  %15 = icmp sle i32 %.sroa.12.0.extract.trunc, %.sroa.1.0.extract.trunc
  br label %16

16:                                               ; preds = %13, %10, %6, %2
  %.0 = phi i1 [ false, %2 ], [ false, %6 ], [ false, %10 ], [ %15, %13 ]
  ret i1 %.0
}